target datalayout = "e-m:e-p270:32:32-p271:32:32-p272:64:64-i64:64-i128:128-f80:128-n8:16:32:64-S128"
target triple = "x86_64-pc-linux-gnu"

%"class.llvm::MachineLocation" = type { i8, i32 }
%"class.llvm::Loc::Single" = type { %"class.std::unique_ptr.701", ptr }
%"class.std::unique_ptr.701" = type { %"struct.std::__uniq_ptr_data.702" }
%"struct.std::__uniq_ptr_data.702" = type { %"class.std::__uniq_ptr_impl.703" }
%"class.std::__uniq_ptr_impl.703" = type { %"class.std::tuple.704" }
%"class.std::tuple.704" = type { %"struct.std::_Tuple_impl.705" }
%"struct.std::_Tuple_impl.705" = type { %"struct.std::_Head_base.708" }
%"struct.std::_Head_base.708" = type { ptr }
%"struct.std::__detail::__variant::_Variant_storage" = type { %"union.std::__detail::__variant::_Variadic_union", i8, [7 x i8] }
%"union.std::__detail::__variant::_Variadic_union" = type { %"union.std::__detail::__variant::_Variadic_union.686" }
%"union.std::__detail::__variant::_Variadic_union.686" = type { %"union.std::__detail::__variant::_Variadic_union.688" }
%"union.std::__detail::__variant::_Variadic_union.688" = type { %"union.std::__detail::__variant::_Variadic_union.690" }
%"union.std::__detail::__variant::_Variadic_union.690" = type { %"struct.std::__detail::__variant::_Uninitialized.691" }
%"struct.std::__detail::__variant::_Uninitialized.691" = type { %"struct.__gnu_cxx::__aligned_membuf.692" }
%"struct.__gnu_cxx::__aligned_membuf.692" = type { [48 x i8] }
%"struct.std::__detail::__variant::_Uninitialized.687" = type { %"struct.__gnu_cxx::__aligned_membuf" }
%"struct.__gnu_cxx::__aligned_membuf" = type { [16 x i8] }

; Function Attrs: mustprogress nounwind uwtable
define linkonce_odr hidden noundef ptr @_ZNK9__gnu_cxx16__aligned_membufIN4llvm3Loc6SingleEE7_M_addrEv(ptr noundef nonnull align 8 dereferenceable(16) %0) #1 comdat align 2 {
  %2 = alloca ptr, align 8
  store ptr %0, ptr %2, align 8
  %3 = load ptr, ptr %2, align 8
  %4 = getelementptr inbounds nuw %"struct.__gnu_cxx::__aligned_membuf", ptr %3, i32 0, i32 0
  ret ptr %4
}

; Function Attrs: mustprogress nounwind uwtable
define linkonce_odr hidden noundef ptr @_ZNK9__gnu_cxx16__aligned_membufIN4llvm3Loc6SingleEE6_M_ptrEv(ptr noundef nonnull align 8 dereferenceable(16) %0) #1 comdat align 2 {
  %2 = alloca ptr, align 8
  store ptr %0, ptr %2, align 8
  %3 = load ptr, ptr %2, align 8
  %4 = call noundef ptr @_ZNK9__gnu_cxx16__aligned_membufIN4llvm3Loc6SingleEE7_M_addrEv(ptr noundef nonnull align 8 dereferenceable(16) %3) #2
  ret ptr %4
}

; Function Attrs: mustprogress nounwind uwtable
define linkonce_odr hidden noundef nonnull align 8 dereferenceable(16) ptr @_ZNKRSt8__detail9__variant14_UninitializedIN4llvm3Loc6SingleELb0EE6_M_getEv(ptr noundef nonnull align 8 dereferenceable(16) %0) #1 comdat align 2 {
  %2 = alloca ptr, align 8
  store ptr %0, ptr %2, align 8
  %3 = load ptr, ptr %2, align 8
  %4 = getelementptr inbounds nuw %"struct.std::__detail::__variant::_Uninitialized.687", ptr %3, i32 0, i32 0
  %5 = call noundef ptr @_ZNK9__gnu_cxx16__aligned_membufIN4llvm3Loc6SingleEE6_M_ptrEv(ptr noundef nonnull align 8 dereferenceable(16) %4) #2
  ret ptr %5
}

; Function Attrs: mustprogress nounwind uwtable
define linkonce_odr noundef nonnull align 8 dereferenceable(16) ptr @_ZNSt8__detail9__variant7__get_nILm1ERKNS0_15_Variadic_unionIJSt9monostateN4llvm3Loc6SingleENS5_5MultiENS5_3MMIENS5_10EntryValueEEEEEEDcOT0_(ptr noundef nonnull align 8 dereferenceable(48) %0) #1 comdat {
  %2 = alloca ptr, align 8
  store ptr %0, ptr %2, align 8
  %3 = load ptr, ptr %2, align 8
  %4 = call noundef nonnull align 8 dereferenceable(16) ptr @_ZNKRSt8__detail9__variant14_UninitializedIN4llvm3Loc6SingleELb0EE6_M_getEv(ptr noundef nonnull align 8 dereferenceable(16) %3) #2
  ret ptr %4
}

; Function Attrs: mustprogress nounwind uwtable
define linkonce_odr noundef nonnull align 8 dereferenceable(16) ptr @_ZNSt8__detail9__variant5__getILm1ERKSt7variantIJSt9monostateN4llvm3Loc6SingleENS5_5MultiENS5_3MMIENS5_10EntryValueEEEEEDcOT0_(ptr noundef nonnull align 8 dereferenceable(49) %0) #1 comdat {
  %2 = alloca ptr, align 8
  store ptr %0, ptr %2, align 8
  %3 = load ptr, ptr %2, align 8
  %4 = getelementptr inbounds nuw %"struct.std::__detail::__variant::_Variant_storage", ptr %3, i32 0, i32 0
  %5 = call noundef nonnull align 8 dereferenceable(16) ptr @_ZNSt8__detail9__variant7__get_nILm1ERKNS0_15_Variadic_unionIJSt9monostateN4llvm3Loc6SingleENS5_5MultiENS5_3MMIENS5_10EntryValueEEEEEEDcOT0_(ptr noundef nonnull align 8 dereferenceable(48) %4) #2
  ret ptr %5
}

; Function Attrs: mustprogress nounwind uwtable
define linkonce_odr hidden noundef i64 @_ZNKSt7variantIJSt9monostateN4llvm3Loc6SingleENS2_5MultiENS2_3MMIENS2_10EntryValueEEE5indexEv(ptr noundef nonnull align 8 dereferenceable(49) %0) #1 comdat align 2 {
  %2 = alloca ptr, align 8
  store ptr %0, ptr %2, align 8
  %3 = load ptr, ptr %2, align 8
  %4 = getelementptr inbounds nuw %"struct.std::__detail::__variant::_Variant_storage", ptr %3, i32 0, i32 1
  %5 = load i8, ptr %4, align 8
  %6 = sext i8 %5 to i64
  ret i64 %6
}

; Function Attrs: mustprogress nounwind uwtable
define linkonce_odr noundef ptr @_ZSt6get_ifILm1EJSt9monostateN4llvm3Loc6SingleENS2_5MultiENS2_3MMIENS2_10EntryValueEEENSt11add_pointerIKNSt19variant_alternativeIXT_ESt7variantIJDpT0_EEE4typeEE4typeEPKSC_(ptr noundef %0) #1 comdat {
  %2 = alloca ptr, align 8
  %3 = alloca ptr, align 8
  store ptr %0, ptr %3, align 8
  %4 = load ptr, ptr %3, align 8
  %5 = icmp ne ptr %4, null
  br i1 %5, label %6, label %13

6:                                                ; preds = %1
  %7 = load ptr, ptr %3, align 8
  %8 = call noundef i64 @_ZNKSt7variantIJSt9monostateN4llvm3Loc6SingleENS2_5MultiENS2_3MMIENS2_10EntryValueEEE5indexEv(ptr noundef nonnull align 8 dereferenceable(49) %7) #2
  %9 = icmp eq i64 %8, 1
  br i1 %9, label %10, label %13

10:                                               ; preds = %6
  %11 = load ptr, ptr %3, align 8
  %12 = call noundef nonnull align 8 dereferenceable(16) ptr @_ZNSt8__detail9__variant5__getILm1ERKSt7variantIJSt9monostateN4llvm3Loc6SingleENS5_5MultiENS5_3MMIENS5_10EntryValueEEEEEDcOT0_(ptr noundef nonnull align 8 dereferenceable(49) %11) #2
  store ptr %12, ptr %2, align 8
  br label %14

13:                                               ; preds = %6, %1
  store ptr null, ptr %2, align 8
  br label %14

14:                                               ; preds = %13, %10
  %15 = load ptr, ptr %2, align 8
  ret ptr %15
}

; Function Attrs: mustprogress nounwind uwtable
define linkonce_odr hidden noundef ptr @_ZNK4llvm3Loc6Single7getExprEv(ptr noundef nonnull align 8 dereferenceable(16) %0) #1 comdat align 2 {
  %2 = alloca ptr, align 8
  store ptr %0, ptr %2, align 8
  %3 = load ptr, ptr %2, align 8
  %4 = getelementptr inbounds nuw %"class.llvm::Loc::Single", ptr %3, i32 0, i32 1
  %5 = load ptr, ptr %4, align 8
  ret ptr %5
}

; Function Attrs: mustprogress nounwind uwtable
define linkonce_odr noundef ptr @_ZSt6get_ifIN4llvm3Loc6SingleEJSt9monostateS2_NS1_5MultiENS1_3MMIENS1_10EntryValueEEENSt11add_pointerIKT_E4typeEPKSt7variantIJDpT0_EE(ptr noundef %0) #1 comdat {
  %2 = alloca ptr, align 8
  %3 = alloca i64, align 8
  store ptr %0, ptr %2, align 8
  store i64 1, ptr %3, align 8
  %4 = load ptr, ptr %2, align 8
  %5 = call noundef ptr @_ZSt6get_ifILm1EJSt9monostateN4llvm3Loc6SingleENS2_5MultiENS2_3MMIENS2_10EntryValueEEENSt11add_pointerIKNSt19variant_alternativeIXT_ESt7variantIJDpT0_EEE4typeEE4typeEPKSC_(ptr noundef %4) #2
  ret ptr %5
}

; Function Attrs: mustprogress nounwind uwtable
define dso_local void @_ZN4llvm16DwarfCompileUnit18addVariableAddressERKNS_11DbgVariableERNS_3DIEENS_15MachineLocationE(ptr noundef nonnull align 8 dereferenceable(696) %0, ptr noundef nonnull align 8 dereferenceable(89) %1, ptr noundef nonnull align 8 dereferenceable(48) %2, i64 %3) #1 align 2 {
  %5 = alloca %"class.llvm::MachineLocation", align 4
  %6 = alloca ptr, align 8
  %7 = alloca ptr, align 8
  %8 = alloca ptr, align 8
  %9 = alloca ptr, align 8
  store i64 %3, ptr %5, align 4
  store ptr %0, ptr %6, align 8
  store ptr %1, ptr %7, align 8
  store ptr %2, ptr %8, align 8
  %10 = load ptr, ptr %6, align 8
  %11 = load ptr, ptr %7, align 8
  %12 = icmp eq ptr %11, null
  br i1 %12, label %15, label %13

13:                                               ; preds = %4
  %14 = getelementptr inbounds i8, ptr %11, i64 40
  br label %15

15:                                               ; preds = %13, %4
  %16 = phi ptr [ %14, %13 ], [ null, %4 ]
  %17 = call noundef ptr @_ZSt6get_ifIN4llvm3Loc6SingleEJSt9monostateS2_NS1_5MultiENS1_3MMIENS1_10EntryValueEEENSt11add_pointerIKT_E4typeEPKSt7variantIJDpT0_EE(ptr noundef %16) #2
  store ptr %17, ptr %9, align 8
  %18 = load ptr, ptr %9, align 8
  %19 = icmp ne ptr %18, null
  br i1 %19, label %20, label %28

20:                                               ; preds = %15
  %21 = load ptr, ptr %9, align 8
  %22 = call noundef ptr @_ZNK4llvm3Loc6Single7getExprEv(ptr noundef nonnull align 8 dereferenceable(16) %21)
  %23 = icmp ne ptr %22, null
  br i1 %23, label %24, label %28

24:                                               ; preds = %20
  %25 = load ptr, ptr %9, align 8
  %26 = call noundef ptr @_ZNK4llvm3Loc6Single7getExprEv(ptr noundef nonnull align 8 dereferenceable(16) %25)
  %27 = load ptr, ptr %8, align 8
  call void @_ZN4llvm16DwarfCompileUnit17addComplexAddressEPKNS_12DIExpressionERNS_3DIEENS_5dwarf9AttributeERKNS_15MachineLocationE(ptr noundef nonnull align 8 dereferenceable(696) %10, ptr noundef %26, ptr noundef nonnull align 8 dereferenceable(48) %27, i16 noundef zeroext 2, ptr noundef nonnull align 4 dereferenceable(8) %5)
  br label %30

28:                                               ; preds = %20, %15
  %29 = load ptr, ptr %8, align 8
  call void @_ZN4llvm16DwarfCompileUnit10addAddressERNS_3DIEENS_5dwarf9AttributeERKNS_15MachineLocationE(ptr noundef nonnull align 8 dereferenceable(696) %10, ptr noundef nonnull align 8 dereferenceable(48) %29, i16 noundef zeroext 2, ptr noundef nonnull align 4 dereferenceable(8) %5)
  br label %30

30:                                               ; preds = %28, %24
  ret void
}