; Function Attrs: mustprogress nounwind uwtable
define dso_local void @_ZN4llvm16DwarfCompileUnit18addVariableAddressERKNS_11DbgVariableERNS_3DIEENS_15MachineLocationE(ptr noundef nonnull align 8 dereferenceable(696) %0, ptr noundef nonnull readonly align 8 captures(none) dereferenceable(89) %1, ptr noundef nonnull align 8 dereferenceable(48) %2, i64 %3) local_unnamed_addr #0 align 2 {
  %5 = alloca %"class.llvm::MachineLocation", align 8
  store i64 %3, ptr %5, align 8
  %6 = getelementptr inbounds nuw i8, ptr %1, i64 88
  %7 = load i8, ptr %6, align 8
  %.not = icmp eq i8 %7, 1
  br i1 %.not, label %8, label %12

8:                                                ; preds = %4
  %9 = getelementptr inbounds nuw i8, ptr %1, i64 48
  %10 = load ptr, ptr %9, align 8
  %.not7 = icmp eq ptr %10, null
  br i1 %.not7, label %12, label %11

11:                                               ; preds = %8
  call void @_ZN4llvm16DwarfCompileUnit17addComplexAddressEPKNS_12DIExpressionERNS_3DIEENS_5dwarf9AttributeERKNS_15MachineLocationE(ptr noundef nonnull align 8 dereferenceable(696) %0, ptr noundef nonnull %10, ptr noundef nonnull align 8 dereferenceable(48) %2, i16 noundef zeroext 2, ptr noundef nonnull align 4 dereferenceable(8) %5)
  br label %13

12:                                               ; preds = %8, %4
  call void @_ZN4llvm16DwarfCompileUnit10addAddressERNS_3DIEENS_5dwarf9AttributeERKNS_15MachineLocationE(ptr noundef nonnull align 8 dereferenceable(696) %0, ptr noundef nonnull align 8 dereferenceable(48) %2, i16 noundef zeroext 2, ptr noundef nonnull align 4 dereferenceable(8) %5)
  br label %13

13:                                               ; preds = %12, %11
  ret void
}